; Function Attrs: mustprogress nounwind uwtable
define dso_local void @_ZNK4node9inspector8protocol15DictionaryValue2atB5cxx11Em(ptr noalias sret(%"struct.std::pair.65") align 8 %agg.result, ptr noundef nonnull align 8 dereferenceable(96) %this, i64 noundef %index) local_unnamed_addr #1 align 2 {
entry:
  %key = alloca %"class.std::__cxx11::basic_string", align 8
  %m_order = getelementptr inbounds i8, ptr %this, i64 72
  %0 = load ptr, ptr %m_order, align 8
  %add.ptr.i = getelementptr inbounds %"class.std::__cxx11::basic_string", ptr %0, i64 %index
  call void @_ZNSt7__cxx1112basic_stringIcSt11char_traitsIcESaIcEEC1ERKS4_(ptr noundef nonnull align 8 dereferenceable(32) %key, ptr noundef nonnull align 8 dereferenceable(32) %add.ptr.i) #27
  %m_data = getelementptr inbounds i8, ptr %this, i64 16
  %call.i = call ptr @_ZNKSt10_HashtableINSt7__cxx1112basic_stringIcSt11char_traitsIcESaIcEEESt4pairIKS5_St10unique_ptrIN4node9inspector8protocol5ValueESt14default_deleteISC_EEESaISG_ENSt8__detail10_Select1stESt8equal_toIS5_ESt4hashIS5_ENSI_18_Mod_range_hashingENSI_20_Default_ranged_hashENSI_20_Prime_rehash_policyENSI_17_Hashtable_traitsILb1ELb0ELb1EEEE4findERS7_(ptr noundef nonnull align 8 dereferenceable(56) %m_data, ptr noundef nonnull align 8 dereferenceable(32) %key)
  %second = getelementptr inbounds i8, ptr %call.i, i64 40
  %1 = load ptr, ptr %second, align 8
  call void @_ZNSt7__cxx1112basic_stringIcSt11char_traitsIcESaIcEEC1ERKS4_(ptr noundef nonnull align 8 dereferenceable(32) %agg.result, ptr noundef nonnull align 8 dereferenceable(32) %key) #27
  %second.i.i = getelementptr inbounds i8, ptr %agg.result, i64 32
  store ptr %1, ptr %second.i.i, align 8, !alias.scope !47
  call void @_ZNSt7__cxx1112basic_stringIcSt11char_traitsIcESaIcEED1Ev(ptr noundef nonnull align 8 dereferenceable(32) %key) #27
  ret void
}